#include <math.h>
#include <stdio.h>
#include <stdlib.h>
#include <string.h>

int main()
{
    int row,col,i,j,a[100][100],b,c=0,n;
	scanf("%d%d",&row,&col);
	b=col*row;
    for(i=0;i<row;i++){
		for(j=0;j<col;j++){
			scanf("%d",&a[i][j]);
		}
	}
	for(n=0;n<103;n++){
		for(i=n;i<col-n;i++){
			printf("%d\n",a[n][i]);
			c=c+1;
		}
		if(c==b){
			break;
		}
		for(i=n+1;i<row-n;i++){
			printf("%d\n",a[i][col-n-1]);
			c=c+1;
		}
		if(c==b){
			break;
		}
		for(i=col-n-2;i>=n;i--){
			printf("%d\n",a[row-1-n][i]);
			c=c+1;
		}
		if(c==b){
			break;
		}
		for(i=row-n-2;i>n;i--){
			printf("%d\n",a[i][n]);
			c=c+1;
		}
		if(c==b){
			break;
		}
	}
	return 0;
}






