; ModuleID = '46/3647.c'
source_filename = "46/3647.c"
target datalayout = "e-m:e-p270:32:32-p271:32:32-p272:64:64-i64:64-f80:128-n8:16:32:64-S128"
target triple = "x86_64-pc-linux-gnu"

@.str = private unnamed_addr constant [5 x i8] c"%d%d\00", align 1
@.str.1 = private unnamed_addr constant [3 x i8] c"%d\00", align 1
@.str.2 = private unnamed_addr constant [4 x i8] c"%d\0A\00", align 1

; Function Attrs: noinline nounwind uwtable
define dso_local i32 @main() #0 {
  %1 = alloca i32, align 4
  %2 = alloca i32, align 4
  %3 = alloca i32, align 4
  %4 = alloca i32, align 4
  %5 = alloca i32, align 4
  %6 = alloca [100 x [100 x i32]], align 16
  %7 = alloca i32, align 4
  %8 = alloca i32, align 4
  %9 = alloca i32, align 4
  store i32 0, i32* %1, align 4
  store i32 0, i32* %8, align 4
  %10 = call i32 (i8*, ...) @__isoc99_scanf(i8* getelementptr inbounds ([5 x i8], [5 x i8]* @.str, i64 0, i64 0), i32* %2, i32* %3)
  %11 = load i32, i32* %3, align 4
  %12 = load i32, i32* %2, align 4
  %13 = mul nsw i32 %11, %12
  store i32 %13, i32* %7, align 4
  store i32 0, i32* %4, align 4
  br label %14

14:                                               ; preds = %35, %0
  %15 = load i32, i32* %4, align 4
  %16 = load i32, i32* %2, align 4
  %17 = icmp slt i32 %15, %16
  br i1 %17, label %18, label %38

18:                                               ; preds = %14
  store i32 0, i32* %5, align 4
  br label %19

19:                                               ; preds = %31, %18
  %20 = load i32, i32* %5, align 4
  %21 = load i32, i32* %3, align 4
  %22 = icmp slt i32 %20, %21
  br i1 %22, label %23, label %34

23:                                               ; preds = %19
  %24 = load i32, i32* %4, align 4
  %25 = sext i32 %24 to i64
  %26 = getelementptr inbounds [100 x [100 x i32]], [100 x [100 x i32]]* %6, i64 0, i64 %25
  %27 = load i32, i32* %5, align 4
  %28 = sext i32 %27 to i64
  %29 = getelementptr inbounds [100 x i32], [100 x i32]* %26, i64 0, i64 %28
  %30 = call i32 (i8*, ...) @__isoc99_scanf(i8* getelementptr inbounds ([3 x i8], [3 x i8]* @.str.1, i64 0, i64 0), i32* %29)
  br label %31

31:                                               ; preds = %23
  %32 = load i32, i32* %5, align 4
  %33 = add nsw i32 %32, 1
  store i32 %33, i32* %5, align 4
  br label %19

34:                                               ; preds = %19
  br label %35

35:                                               ; preds = %34
  %36 = load i32, i32* %4, align 4
  %37 = add nsw i32 %36, 1
  store i32 %37, i32* %4, align 4
  br label %14

38:                                               ; preds = %14
  store i32 0, i32* %9, align 4
  br label %39

39:                                               ; preds = %160, %38
  %40 = load i32, i32* %9, align 4
  %41 = icmp slt i32 %40, 103
  br i1 %41, label %42, label %163

42:                                               ; preds = %39
  %43 = load i32, i32* %9, align 4
  store i32 %43, i32* %4, align 4
  br label %44

44:                                               ; preds = %61, %42
  %45 = load i32, i32* %4, align 4
  %46 = load i32, i32* %3, align 4
  %47 = load i32, i32* %9, align 4
  %48 = sub nsw i32 %46, %47
  %49 = icmp slt i32 %45, %48
  br i1 %49, label %50, label %64

50:                                               ; preds = %44
  %51 = load i32, i32* %9, align 4
  %52 = sext i32 %51 to i64
  %53 = getelementptr inbounds [100 x [100 x i32]], [100 x [100 x i32]]* %6, i64 0, i64 %52
  %54 = load i32, i32* %4, align 4
  %55 = sext i32 %54 to i64
  %56 = getelementptr inbounds [100 x i32], [100 x i32]* %53, i64 0, i64 %55
  %57 = load i32, i32* %56, align 4
  %58 = call i32 (i8*, ...) @printf(i8* getelementptr inbounds ([4 x i8], [4 x i8]* @.str.2, i64 0, i64 0), i32 %57)
  %59 = load i32, i32* %8, align 4
  %60 = add nsw i32 %59, 1
  store i32 %60, i32* %8, align 4
  br label %61

61:                                               ; preds = %50
  %62 = load i32, i32* %4, align 4
  %63 = add nsw i32 %62, 1
  store i32 %63, i32* %4, align 4
  br label %44

64:                                               ; preds = %44
  %65 = load i32, i32* %8, align 4
  %66 = load i32, i32* %7, align 4
  %67 = icmp eq i32 %65, %66
  br i1 %67, label %68, label %69

68:                                               ; preds = %64
  br label %163

69:                                               ; preds = %64
  %70 = load i32, i32* %9, align 4
  %71 = add nsw i32 %70, 1
  store i32 %71, i32* %4, align 4
  br label %72

72:                                               ; preds = %92, %69
  %73 = load i32, i32* %4, align 4
  %74 = load i32, i32* %2, align 4
  %75 = load i32, i32* %9, align 4
  %76 = sub nsw i32 %74, %75
  %77 = icmp slt i32 %73, %76
  br i1 %77, label %78, label %95

78:                                               ; preds = %72
  %79 = load i32, i32* %4, align 4
  %80 = sext i32 %79 to i64
  %81 = getelementptr inbounds [100 x [100 x i32]], [100 x [100 x i32]]* %6, i64 0, i64 %80
  %82 = load i32, i32* %3, align 4
  %83 = load i32, i32* %9, align 4
  %84 = sub nsw i32 %82, %83
  %85 = sub nsw i32 %84, 1
  %86 = sext i32 %85 to i64
  %87 = getelementptr inbounds [100 x i32], [100 x i32]* %81, i64 0, i64 %86
  %88 = load i32, i32* %87, align 4
  %89 = call i32 (i8*, ...) @printf(i8* getelementptr inbounds ([4 x i8], [4 x i8]* @.str.2, i64 0, i64 0), i32 %88)
  %90 = load i32, i32* %8, align 4
  %91 = add nsw i32 %90, 1
  store i32 %91, i32* %8, align 4
  br label %92

92:                                               ; preds = %78
  %93 = load i32, i32* %4, align 4
  %94 = add nsw i32 %93, 1
  store i32 %94, i32* %4, align 4
  br label %72

95:                                               ; preds = %72
  %96 = load i32, i32* %8, align 4
  %97 = load i32, i32* %7, align 4
  %98 = icmp eq i32 %96, %97
  br i1 %98, label %99, label %100

99:                                               ; preds = %95
  br label %163

100:                                              ; preds = %95
  %101 = load i32, i32* %3, align 4
  %102 = load i32, i32* %9, align 4
  %103 = sub nsw i32 %101, %102
  %104 = sub nsw i32 %103, 2
  store i32 %104, i32* %4, align 4
  br label %105

105:                                              ; preds = %123, %100
  %106 = load i32, i32* %4, align 4
  %107 = load i32, i32* %9, align 4
  %108 = icmp sge i32 %106, %107
  br i1 %108, label %109, label %126

109:                                              ; preds = %105
  %110 = load i32, i32* %2, align 4
  %111 = sub nsw i32 %110, 1
  %112 = load i32, i32* %9, align 4
  %113 = sub nsw i32 %111, %112
  %114 = sext i32 %113 to i64
  %115 = getelementptr inbounds [100 x [100 x i32]], [100 x [100 x i32]]* %6, i64 0, i64 %114
  %116 = load i32, i32* %4, align 4
  %117 = sext i32 %116 to i64
  %118 = getelementptr inbounds [100 x i32], [100 x i32]* %115, i64 0, i64 %117
  %119 = load i32, i32* %118, align 4
  %120 = call i32 (i8*, ...) @printf(i8* getelementptr inbounds ([4 x i8], [4 x i8]* @.str.2, i64 0, i64 0), i32 %119)
  %121 = load i32, i32* %8, align 4
  %122 = add nsw i32 %121, 1
  store i32 %122, i32* %8, align 4
  br label %123

123:                                              ; preds = %109
  %124 = load i32, i32* %4, align 4
  %125 = add nsw i32 %124, -1
  store i32 %125, i32* %4, align 4
  br label %105

126:                                              ; preds = %105
  %127 = load i32, i32* %8, align 4
  %128 = load i32, i32* %7, align 4
  %129 = icmp eq i32 %127, %128
  br i1 %129, label %130, label %131

130:                                              ; preds = %126
  br label %163

131:                                              ; preds = %126
  %132 = load i32, i32* %2, align 4
  %133 = load i32, i32* %9, align 4
  %134 = sub nsw i32 %132, %133
  %135 = sub nsw i32 %134, 2
  store i32 %135, i32* %4, align 4
  br label %136

136:                                              ; preds = %151, %131
  %137 = load i32, i32* %4, align 4
  %138 = load i32, i32* %9, align 4
  %139 = icmp sgt i32 %137, %138
  br i1 %139, label %140, label %154

140:                                              ; preds = %136
  %141 = load i32, i32* %4, align 4
  %142 = sext i32 %141 to i64
  %143 = getelementptr inbounds [100 x [100 x i32]], [100 x [100 x i32]]* %6, i64 0, i64 %142
  %144 = load i32, i32* %9, align 4
  %145 = sext i32 %144 to i64
  %146 = getelementptr inbounds [100 x i32], [100 x i32]* %143, i64 0, i64 %145
  %147 = load i32, i32* %146, align 4
  %148 = call i32 (i8*, ...) @printf(i8* getelementptr inbounds ([4 x i8], [4 x i8]* @.str.2, i64 0, i64 0), i32 %147)
  %149 = load i32, i32* %8, align 4
  %150 = add nsw i32 %149, 1
  store i32 %150, i32* %8, align 4
  br label %151

151:                                              ; preds = %140
  %152 = load i32, i32* %4, align 4
  %153 = add nsw i32 %152, -1
  store i32 %153, i32* %4, align 4
  br label %136

154:                                              ; preds = %136
  %155 = load i32, i32* %8, align 4
  %156 = load i32, i32* %7, align 4
  %157 = icmp eq i32 %155, %156
  br i1 %157, label %158, label %159

158:                                              ; preds = %154
  br label %163

159:                                              ; preds = %154
  br label %160

160:                                              ; preds = %159
  %161 = load i32, i32* %9, align 4
  %162 = add nsw i32 %161, 1
  store i32 %162, i32* %9, align 4
  br label %39

163:                                              ; preds = %158, %130, %99, %68, %39
  ret i32 0
}

declare dso_local i32 @__isoc99_scanf(i8*, ...) #1

declare dso_local i32 @printf(i8*, ...) #1


!llvm.module.flags = !{!0}
!llvm.ident = !{!1}

!0 = !{i32 1, !"wchar_size", i32 4}
!1 = !{!"clang version 10.0.0-4ubuntu1 "}
